target datalayout = "e-m:e-p270:32:32-p271:32:32-p272:64:64-i64:64-i128:128-f80:128-n8:16:32:64-S128"
target triple = "x86_64-pc-linux-gnu"

%struct.Cleaner = type <{ ptr, ptr, %struct.DyndepLoader, %"class.std::set", %"class.std::set.0", i32, [4 x i8], ptr, i32, [4 x i8] }>
%struct.DyndepLoader = type { ptr, ptr, %struct.OptionalExplanations }
%struct.OptionalExplanations = type { ptr }
%"class.std::set" = type { %"class.std::_Rb_tree" }
%"class.std::_Rb_tree" = type { %"struct.std::_Rb_tree<std::__cxx11::basic_string<char>, std::__cxx11::basic_string<char>, std::_Identity<std::__cxx11::basic_string<char>>, std::less<std::__cxx11::basic_string<char>>>::_Rb_tree_impl" }
%"struct.std::_Rb_tree<std::__cxx11::basic_string<char>, std::__cxx11::basic_string<char>, std::_Identity<std::__cxx11::basic_string<char>>, std::less<std::__cxx11::basic_string<char>>>::_Rb_tree_impl" = type { [8 x i8], %"struct.std::_Rb_tree_header" }
%"struct.std::_Rb_tree_header" = type { %"struct.std::_Rb_tree_node_base", i64 }
%"struct.std::_Rb_tree_node_base" = type { i32, ptr, ptr, ptr }
%"class.std::set.0" = type { %"class.std::_Rb_tree.1" }
%"class.std::_Rb_tree.1" = type { %"struct.std::_Rb_tree<Node *, Node *, std::_Identity<Node *>, std::less<Node *>>::_Rb_tree_impl" }
%"struct.std::_Rb_tree<Node *, Node *, std::_Identity<Node *>, std::less<Node *>>::_Rb_tree_impl" = type { [8 x i8], %"struct.std::_Rb_tree_header" }
%struct.BuildConfig = type <{ i32, i8, [3 x i8], i32, i32, double, [8 x i8] }>

@.str.2 = private unnamed_addr constant [12 x i8] c"Cleaning...\00", align 1
@.str.3 = private unnamed_addr constant [2 x i8] c"\0A\00", align 1
@.str.4 = private unnamed_addr constant [2 x i8] c" \00", align 1
@stdout = external global ptr, align 8

; Function Attrs: mustprogress nounwind uwtable
define linkonce_odr dso_local noundef zeroext i1 @_ZNK7Cleaner9IsVerboseEv(ptr noundef nonnull align 8 dereferenceable(156) %0) #1 comdat align 2 {
  %2 = alloca ptr, align 8
  store ptr %0, ptr %2, align 8, !tbaa !4
  %3 = load ptr, ptr %2, align 8
  %4 = getelementptr inbounds nuw %struct.Cleaner, ptr %3, i32 0, i32 1
  %5 = load ptr, ptr %4, align 8, !tbaa !53
  %6 = getelementptr inbounds nuw %struct.BuildConfig, ptr %5, i32 0, i32 0
  %7 = load i32, ptr %6, align 8, !tbaa !54
  %8 = icmp ne i32 %7, 0
  br i1 %8, label %9, label %23

9:                                                ; preds = %1
  %10 = getelementptr inbounds nuw %struct.Cleaner, ptr %3, i32 0, i32 1
  %11 = load ptr, ptr %10, align 8, !tbaa !53
  %12 = getelementptr inbounds nuw %struct.BuildConfig, ptr %11, i32 0, i32 0
  %13 = load i32, ptr %12, align 8, !tbaa !54
  %14 = icmp eq i32 %13, 3
  br i1 %14, label %21, label %15

15:                                               ; preds = %9
  %16 = getelementptr inbounds nuw %struct.Cleaner, ptr %3, i32 0, i32 1
  %17 = load ptr, ptr %16, align 8, !tbaa !53
  %18 = getelementptr inbounds nuw %struct.BuildConfig, ptr %17, i32 0, i32 1
  %19 = load i8, ptr %18, align 4, !tbaa !60, !range !61, !noundef !62
  %20 = trunc i8 %19 to i1
  br label %21

21:                                               ; preds = %15, %9
  %22 = phi i1 [ true, %9 ], [ %20, %15 ]
  br label %23

23:                                               ; preds = %21, %1
  %24 = phi i1 [ false, %1 ], [ %22, %21 ]
  ret i1 %24
}

; Function Attrs: mustprogress uwtable
define dso_local void @_ZN7Cleaner11PrintHeaderEv(ptr noundef nonnull align 8 dereferenceable(156) %0) #0 align 2 {
  %2 = alloca ptr, align 8
  store ptr %0, ptr %2, align 8, !tbaa !4
  %3 = load ptr, ptr %2, align 8
  %4 = getelementptr inbounds nuw %struct.Cleaner, ptr %3, i32 0, i32 1
  %5 = load ptr, ptr %4, align 8, !tbaa !53
  %6 = getelementptr inbounds nuw %struct.BuildConfig, ptr %5, i32 0, i32 0
  %7 = load i32, ptr %6, align 8, !tbaa !54
  %8 = icmp eq i32 %7, 0
  br i1 %8, label %9, label %10

9:                                                ; preds = %1
  br label %20

10:                                               ; preds = %1
  %11 = call i32 (ptr, ...) @printf(ptr noundef @.str.2)
  %12 = call noundef zeroext i1 @_ZNK7Cleaner9IsVerboseEv(ptr noundef nonnull align 8 dereferenceable(156) %3)
  br i1 %12, label %13, label %15

13:                                               ; preds = %10
  %14 = call i32 (ptr, ...) @printf(ptr noundef @.str.3)
  br label %17

15:                                               ; preds = %10
  %16 = call i32 (ptr, ...) @printf(ptr noundef @.str.4)
  br label %17

17:                                               ; preds = %15, %13
  %18 = load ptr, ptr @stdout, align 8, !tbaa !70
  %19 = call i32 @fflush(ptr noundef %18)
  br label %20

20:                                               ; preds = %17, %9
  ret void
}