; Function Attrs: mustprogress nofree nounwind uwtable
define dso_local void @_ZN7Cleaner11PrintHeaderEv(ptr noundef nonnull readonly align 8 captures(none) dereferenceable(156) %0) local_unnamed_addr #4 align 2 {
  %2 = getelementptr inbounds nuw i8, ptr %0, i64 8
  %3 = load ptr, ptr %2, align 8, !tbaa !52
  %4 = load i32, ptr %3, align 8, !tbaa !53
  %5 = icmp eq i32 %4, 0
  br i1 %5, label %15, label %6

6:                                                ; preds = %1
  %7 = tail call i32 (ptr, ...) @printf(ptr noundef nonnull dereferenceable(1) @.str.2)
  %8 = load ptr, ptr %2, align 8, !tbaa !52
  %9 = load i32, ptr %8, align 8, !tbaa !53
  switch i32 %9, label %_ZNK7Cleaner9IsVerboseEv.exit [
    i32 0, label %_ZNK7Cleaner9IsVerboseEv.exit.thread2
    i32 3, label %_ZNK7Cleaner9IsVerboseEv.exit.thread
  ]

_ZNK7Cleaner9IsVerboseEv.exit:                    ; preds = %6
  %10 = getelementptr inbounds nuw i8, ptr %8, i64 4
  %11 = load i8, ptr %10, align 4, !tbaa !59, !range !60, !noundef !61
  %12 = trunc nuw i8 %11 to i1
  br i1 %12, label %_ZNK7Cleaner9IsVerboseEv.exit.thread, label %_ZNK7Cleaner9IsVerboseEv.exit.thread2

_ZNK7Cleaner9IsVerboseEv.exit.thread2:            ; preds = %6, %_ZNK7Cleaner9IsVerboseEv.exit
  br label %_ZNK7Cleaner9IsVerboseEv.exit.thread

_ZNK7Cleaner9IsVerboseEv.exit.thread:             ; preds = %_ZNK7Cleaner9IsVerboseEv.exit, %6, %_ZNK7Cleaner9IsVerboseEv.exit.thread2
  %.sink = phi i32 [ 32, %_ZNK7Cleaner9IsVerboseEv.exit.thread2 ], [ 10, %6 ], [ 10, %_ZNK7Cleaner9IsVerboseEv.exit ]
  %putchar = tail call i32 @putchar(i32 %.sink)
  %13 = load ptr, ptr @stdout, align 8, !tbaa !65
  %14 = tail call i32 @fflush(ptr noundef %13)
  br label %15

15:                                               ; preds = %1, %_ZNK7Cleaner9IsVerboseEv.exit.thread
  ret void
}